(dp0
S'sts135.lp'
p1
(lp2
F0.31000000000000005
aF0.040000000000000036
aF0.040000000000000036
aI135
aI1
aI3285
aI3
asS'ofsub9.lp'
p3
(lp4
F0.0
aF0.010000000000000009
aF0.010000000000000009
aI203
aI7
aI527
aI32
asS'pa36243.lp'
p5
(lp6
F0.0
aF0.0
aF0.0
aI64
aI1
aI368
aI3
asS'cep1.gz.mts.lp'
p7
(lp8
F0.35
aF0.43999999999999995
aF0.09000000000000008
aI3248
aI3248
aI4769
aI4769
asS'sts81.lp'
p9
(lp10
F0.04999999999999999
aF0.020000000000000018
aF0.020000000000000018
aI81
aI1
aI1242
aI3
asS'sts63.lp'
p11
(lp12
F0.050000000000000044
aF0.010000000000000009
aF0.010000000000000009
aI63
aI1
aI777
aI3
asS'of7_18_9.lp'
p13
(lp14
F0.010000000000000009
aF0.010000000000000009
aF0.010000000000000009
aI441
aI1
aI1134
aI4
as.